; ModuleID = 'bench/libcxx/original/condition_variable_destructor.ll'
source_filename = "bench/libcxx/original/condition_variable_destructor.ll"
target datalayout = "e-m:e-p270:32:32-p271:32:32-p272:64:64-i64:64-i128:128-f80:128-n8:16:32:64-S128"
target triple = "x86_64-pc-linux-gnu"

@_ZNSt3__118condition_variableD1Ev = dso_local unnamed_addr alias void (ptr), ptr @_ZNSt3__118condition_variableD2Ev

; Function Attrs: mustprogress nounwind uwtable
define dso_local void @_ZNSt3__118condition_variableD2Ev(ptr noundef nonnull align 8 dereferenceable(48) %0) unnamed_addr #0 align 2 personality ptr @__gxx_personality_v0 {
  %2 = tail call noundef i32 @pthread_cond_destroy(ptr noundef nonnull %0) #2
  ret void
}

declare i32 @__gxx_personality_v0(...)

; Function Attrs: nounwind
declare i32 @pthread_cond_destroy(ptr noundef) local_unnamed_addr #1


!llvm.linker.options = !{}
!llvm.module.flags = !{!0, !1, !2, !3}

!0 = !{i32 1, !"wchar_size", i32 4}
!1 = !{i32 8, !"PIC Level", i32 2}
!2 = !{i32 7, !"PIE Level", i32 2}
!3 = !{i32 7, !"uwtable", i32 2}
